target datalayout = "e-m:e-p270:32:32-p271:32:32-p272:64:64-i64:64-i128:128-f80:128-n8:16:32:64-S128"
target triple = "x86_64-pc-linux-gnu"

%"class.flatbuffers::ClassicLocale" = type { ptr }
%"class.flatbuffers::Vector" = type { i32 }

@_ZN11flatbuffers13ClassicLocale9instance_E = external global %"class.flatbuffers::ClassicLocale", align 8

; Function Attrs: mustprogress nounwind uwtable
define linkonce_odr dso_local noundef ptr @_ZN11flatbuffers13ClassicLocale3GetEv() #1 comdat align 2 {
  %1 = load ptr, ptr @_ZN11flatbuffers13ClassicLocale9instance_E, align 8, !tbaa !184
  ret ptr %1
}

; Function Attrs: mustprogress nounwind uwtable
define linkonce_odr dso_local noundef double @_ZNSt14numeric_limitsIdE9quiet_NaNEv() #1 comdat align 2 {
  ret double 0x7FF8000000000000
}

; Function Attrs: mustprogress nounwind uwtable
define linkonce_odr dso_local noundef zeroext i1 @_ZSt5isnand(double noundef %0) #1 comdat {
  %2 = alloca double, align 8
  store double %0, ptr %2, align 8, !tbaa !23
  %3 = load double, ptr %2, align 8, !tbaa !23
  %4 = call i1 @llvm.is.fpclass.f64(double %3, i32 3)
  ret i1 %4
}

; Function Attrs: inlinehint mustprogress nounwind uwtable
define linkonce_odr dso_local void @_ZN11flatbuffers13strtoval_implEPdPKcPPc(ptr noundef %0, ptr noundef %1, ptr noundef %2) #5 comdat {
  %4 = alloca ptr, align 8
  %5 = alloca ptr, align 8
  %6 = alloca ptr, align 8
  store ptr %0, ptr %4, align 8, !tbaa !25
  store ptr %1, ptr %5, align 8, !tbaa !8
  store ptr %2, ptr %6, align 8, !tbaa !182
  %7 = load ptr, ptr %5, align 8, !tbaa !8
  %8 = load ptr, ptr %6, align 8, !tbaa !182
  %9 = call noundef ptr @_ZN11flatbuffers13ClassicLocale3GetEv()
  %10 = call double @strtod_l(ptr noundef %7, ptr noundef %8, ptr noundef %9) #20
  %11 = load ptr, ptr %4, align 8, !tbaa !25
  store double %10, ptr %11, align 8, !tbaa !23
  ret void
}

; Function Attrs: inlinehint mustprogress uwtable
define linkonce_odr dso_local noundef zeroext i1 @_ZN11flatbuffers17StringToFloatImplIdEEbPT_PKc(ptr noundef %0, ptr noundef %1) #3 comdat {
  %3 = alloca ptr, align 8
  %4 = alloca ptr, align 8
  %5 = alloca ptr, align 8
  %6 = alloca i8, align 1
  store ptr %0, ptr %3, align 8, !tbaa !25
  store ptr %1, ptr %4, align 8, !tbaa !8
  call void @llvm.lifetime.start.p0(i64 8, ptr %5) #20
  %7 = load ptr, ptr %4, align 8, !tbaa !8
  store ptr %7, ptr %5, align 8, !tbaa !8
  %8 = load ptr, ptr %3, align 8, !tbaa !25
  %9 = load ptr, ptr %4, align 8, !tbaa !8
  call void @_ZN11flatbuffers13strtoval_implEPdPKcPPc(ptr noundef %8, ptr noundef %9, ptr noundef %5)
  call void @llvm.lifetime.start.p0(i64 1, ptr %6) #20
  %10 = load ptr, ptr %5, align 8, !tbaa !8
  %11 = load ptr, ptr %4, align 8, !tbaa !8
  %12 = icmp ne ptr %10, %11
  br i1 %12, label %13, label %18

13:                                               ; preds = %2
  %14 = load ptr, ptr %5, align 8, !tbaa !8
  %15 = load i8, ptr %14, align 1, !tbaa !14
  %16 = sext i8 %15 to i32
  %17 = icmp eq i32 %16, 0
  br label %18

18:                                               ; preds = %13, %2
  %19 = phi i1 [ false, %2 ], [ %17, %13 ]
  %20 = zext i1 %19 to i8
  store i8 %20, ptr %6, align 1, !tbaa !53
  %21 = load i8, ptr %6, align 1, !tbaa !53, !range !55, !noundef !56
  %22 = trunc i8 %21 to i1
  br i1 %22, label %25, label %23

23:                                               ; preds = %18
  %24 = load ptr, ptr %3, align 8, !tbaa !25
  store double 0.000000e+00, ptr %24, align 8, !tbaa !23
  br label %25

25:                                               ; preds = %23, %18
  %26 = load i8, ptr %6, align 1, !tbaa !53, !range !55, !noundef !56
  %27 = trunc i8 %26 to i1
  br i1 %27, label %28, label %35

28:                                               ; preds = %25
  %29 = load ptr, ptr %3, align 8, !tbaa !25
  %30 = load double, ptr %29, align 8, !tbaa !23
  %31 = call noundef zeroext i1 @_ZSt5isnand(double noundef %30)
  br i1 %31, label %32, label %35

32:                                               ; preds = %28
  %33 = call noundef double @_ZNSt14numeric_limitsIdE9quiet_NaNEv() #20
  %34 = load ptr, ptr %3, align 8, !tbaa !25
  store double %33, ptr %34, align 8, !tbaa !23
  br label %35

35:                                               ; preds = %32, %28, %25
  %36 = load i8, ptr %6, align 1, !tbaa !53, !range !55, !noundef !56
  %37 = trunc i8 %36 to i1
  call void @llvm.lifetime.end.p0(i64 1, ptr %6) #20
  call void @llvm.lifetime.end.p0(i64 8, ptr %5) #20
  ret i1 %37
}

; Function Attrs: mustprogress nounwind uwtable
define linkonce_odr dso_local noundef ptr @_ZNK11flatbuffers6VectorIcjE4DataEv(ptr noundef nonnull align 4 dereferenceable(4) %0) #1 comdat align 2 {
  %2 = alloca ptr, align 8
  store ptr %0, ptr %2, align 8, !tbaa !78
  %3 = load ptr, ptr %2, align 8
  %4 = getelementptr inbounds nuw %"class.flatbuffers::Vector", ptr %3, i32 0, i32 0
  %5 = getelementptr inbounds i32, ptr %4, i64 1
  ret ptr %5
}

; Function Attrs: mustprogress nounwind uwtable
define linkonce_odr dso_local noundef i32 @_ZN11flatbuffers12EndianScalarIjEET_S1_(i32 noundef %0) #1 comdat {
  %2 = alloca i32, align 4
  store i32 %0, ptr %2, align 4, !tbaa !17
  %3 = load i32, ptr %2, align 4, !tbaa !17
  ret i32 %3
}

; Function Attrs: mustprogress nounwind uwtable
define linkonce_odr dso_local noundef double @_ZN11flatbuffers12EndianScalarIdEET_S1_(double noundef %0) #1 comdat {
  %2 = alloca double, align 8
  store double %0, ptr %2, align 8, !tbaa !23
  %3 = load double, ptr %2, align 8, !tbaa !23
  ret double %3
}

; Function Attrs: mustprogress nounwind uwtable
define linkonce_odr dso_local noundef float @_ZN11flatbuffers12EndianScalarIfEET_S1_(float noundef %0) #1 comdat {
  %2 = alloca float, align 4
  store float %0, ptr %2, align 4, !tbaa !21
  %3 = load float, ptr %2, align 4, !tbaa !21
  ret float %3
}

; Function Attrs: inlinehint mustprogress uwtable
define linkonce_odr dso_local noundef zeroext i1 @_ZN11flatbuffers14StringToNumberIdEEbPKcPT_(ptr noundef %0, ptr noundef %1) #3 comdat {
  %3 = alloca ptr, align 8
  %4 = alloca ptr, align 8
  store ptr %0, ptr %3, align 8, !tbaa !8
  store ptr %1, ptr %4, align 8, !tbaa !25
  %5 = load ptr, ptr %4, align 8, !tbaa !25
  %6 = load ptr, ptr %3, align 8, !tbaa !8
  %7 = call noundef zeroext i1 @_ZN11flatbuffers17StringToFloatImplIdEEbPT_PKc(ptr noundef %5, ptr noundef %6)
  ret i1 %7
}

; Function Attrs: mustprogress uwtable
define linkonce_odr dso_local noundef ptr @_ZNK11flatbuffers6String5c_strEv(ptr noundef nonnull align 4 dereferenceable(4) %0) #0 comdat align 2 {
  %2 = alloca ptr, align 8
  store ptr %0, ptr %2, align 8, !tbaa !11
  %3 = load ptr, ptr %2, align 8
  %4 = call noundef ptr @_ZNK11flatbuffers6VectorIcjE4DataEv(ptr noundef nonnull align 4 dereferenceable(4) %3)
  ret ptr %4
}

; Function Attrs: mustprogress nounwind uwtable
define linkonce_odr dso_local noundef i32 @_ZN11flatbuffers10ReadScalarIjEET_PKv(ptr noundef %0) #1 comdat {
  %2 = alloca ptr, align 8
  store ptr %0, ptr %2, align 8, !tbaa !13
  %3 = load ptr, ptr %2, align 8, !tbaa !13
  %4 = load i32, ptr %3, align 4, !tbaa !17
  %5 = call noundef i32 @_ZN11flatbuffers12EndianScalarIjEET_S1_(i32 noundef %4)
  ret i32 %5
}

; Function Attrs: mustprogress uwtable
define linkonce_odr dso_local noundef double @_ZN11flatbuffers10ReadScalarIdEET_PKv(ptr noundef %0) #0 comdat {
  %2 = alloca ptr, align 8
  store ptr %0, ptr %2, align 8, !tbaa !13
  %3 = load ptr, ptr %2, align 8, !tbaa !13
  %4 = load double, ptr %3, align 8, !tbaa !23
  %5 = call noundef double @_ZN11flatbuffers12EndianScalarIdEET_S1_(double noundef %4)
  ret double %5
}

; Function Attrs: mustprogress uwtable
define linkonce_odr dso_local noundef float @_ZN11flatbuffers10ReadScalarIfEET_PKv(ptr noundef %0) #0 comdat {
  %2 = alloca ptr, align 8
  store ptr %0, ptr %2, align 8, !tbaa !13
  %3 = load ptr, ptr %2, align 8, !tbaa !13
  %4 = load float, ptr %3, align 4, !tbaa !21
  %5 = call noundef float @_ZN11flatbuffers12EndianScalarIfEET_S1_(float noundef %4)
  ret float %5
}

; Function Attrs: mustprogress uwtable
define dso_local noundef double @_ZN11flatbuffers12GetAnyValueFEN10reflection8BaseTypeEPKh(i32 noundef %0, ptr noundef %1) #0 {
  %3 = alloca double, align 8
  %4 = alloca i32, align 4
  %5 = alloca ptr, align 8
  %6 = alloca ptr, align 8
  %7 = alloca double, align 8
  %8 = alloca i32, align 4
  store i32 %0, ptr %4, align 4, !tbaa !4
  store ptr %1, ptr %5, align 8, !tbaa !8
  %9 = load i32, ptr %4, align 4, !tbaa !4
  switch i32 %9, label %32 [
    i32 11, label %10
    i32 12, label %14
    i32 13, label %17
  ]

10:                                               ; preds = %2
  %11 = load ptr, ptr %5, align 8, !tbaa !8
  %12 = call noundef float @_ZN11flatbuffers10ReadScalarIfEET_PKv(ptr noundef %11)
  %13 = fpext float %12 to double
  store double %13, ptr %3, align 8
  br label %37

14:                                               ; preds = %2
  %15 = load ptr, ptr %5, align 8, !tbaa !8
  %16 = call noundef double @_ZN11flatbuffers10ReadScalarIdEET_PKv(ptr noundef %15)
  store double %16, ptr %3, align 8
  br label %37

17:                                               ; preds = %2
  call void @llvm.lifetime.start.p0(i64 8, ptr %6) #20
  %18 = load ptr, ptr %5, align 8, !tbaa !8
  %19 = call noundef i32 @_ZN11flatbuffers10ReadScalarIjEET_PKv(ptr noundef %18)
  %20 = load ptr, ptr %5, align 8, !tbaa !8
  %21 = zext i32 %19 to i64
  %22 = getelementptr inbounds nuw i8, ptr %20, i64 %21
  store ptr %22, ptr %6, align 8, !tbaa !11
  %23 = load ptr, ptr %6, align 8, !tbaa !11
  %24 = icmp ne ptr %23, null
  br i1 %24, label %25, label %30

25:                                               ; preds = %17
  call void @llvm.lifetime.start.p0(i64 8, ptr %7) #20
  %26 = load ptr, ptr %6, align 8, !tbaa !11
  %27 = call noundef ptr @_ZNK11flatbuffers6String5c_strEv(ptr noundef nonnull align 4 dereferenceable(4) %26)
  %28 = call noundef zeroext i1 @_ZN11flatbuffers14StringToNumberIdEEbPKcPT_(ptr noundef %27, ptr noundef %7)
  %29 = load double, ptr %7, align 8, !tbaa !23
  store double %29, ptr %3, align 8
  store i32 1, ptr %8, align 4
  call void @llvm.lifetime.end.p0(i64 8, ptr %7) #20
  br label %31

30:                                               ; preds = %17
  store double 0.000000e+00, ptr %3, align 8
  store i32 1, ptr %8, align 4
  br label %31

31:                                               ; preds = %30, %25
  call void @llvm.lifetime.end.p0(i64 8, ptr %6) #20
  br label %37

32:                                               ; preds = %2
  %33 = load i32, ptr %4, align 4, !tbaa !4
  %34 = load ptr, ptr %5, align 8, !tbaa !8
  %35 = call noundef i64 @_ZN11flatbuffers12GetAnyValueIEN10reflection8BaseTypeEPKh(i32 noundef %33, ptr noundef %34)
  %36 = sitofp i64 %35 to double
  store double %36, ptr %3, align 8
  br label %37

37:                                               ; preds = %32, %31, %14, %10
  %38 = load double, ptr %3, align 8
  ret double %38
}