; Function Attrs: mustprogress nounwind uwtable
define dso_local noundef double @_ZN11flatbuffers12GetAnyValueFEN10reflection8BaseTypeEPKh(i32 noundef %0, ptr noundef %1) local_unnamed_addr #0 {
  %3 = alloca ptr, align 8
  switch i32 %0, label %21 [
    i32 11, label %4
    i32 12, label %7
    i32 13, label %9
  ]

4:                                                ; preds = %2
  %5 = load float, ptr %1, align 4, !tbaa !13
  %6 = fpext float %5 to double
  br label %24

7:                                                ; preds = %2
  %8 = load double, ptr %1, align 8, !tbaa !15
  br label %24

9:                                                ; preds = %2
  %10 = load i32, ptr %1, align 4, !tbaa !9
  %11 = zext i32 %10 to i64
  %12 = getelementptr inbounds nuw i8, ptr %1, i64 %11
  %13 = getelementptr inbounds nuw i8, ptr %12, i64 4
  call void @llvm.lifetime.start.p0(i64 8, ptr nonnull %3) #21
  store ptr %13, ptr %3, align 8, !tbaa !17
  %14 = load ptr, ptr @_ZN11flatbuffers13ClassicLocale9instance_E, align 8, !tbaa !20
  %15 = call double @strtod_l(ptr noundef nonnull %13, ptr noundef nonnull %3, ptr noundef %14) #21
  %16 = load ptr, ptr %3, align 8, !tbaa !17
  %.not.i.i = icmp eq ptr %16, %13
  br i1 %.not.i.i, label %_ZN11flatbuffers14StringToNumberIdEEbPKcPT_.exit, label %17

17:                                               ; preds = %9
  %18 = load i8, ptr %16, align 1, !tbaa !4
  %19 = icmp eq i8 %18, 0
  br i1 %19, label %.critedge.i.i, label %_ZN11flatbuffers14StringToNumberIdEEbPKcPT_.exit

.critedge.i.i:                                    ; preds = %17
  %20 = fcmp uno double %15, 0.000000e+00
  br i1 %20, label %.sink.split.i.i, label %_ZN11flatbuffers14StringToNumberIdEEbPKcPT_.exit

.sink.split.i.i:                                  ; preds = %.critedge.i.i
  br label %_ZN11flatbuffers14StringToNumberIdEEbPKcPT_.exit

_ZN11flatbuffers14StringToNumberIdEEbPKcPT_.exit: ; preds = %9, %17, %.critedge.i.i, %.sink.split.i.i
  %.010 = phi double [ %15, %.critedge.i.i ], [ 0.000000e+00, %9 ], [ 0.000000e+00, %17 ], [ 0x7FF8000000000000, %.sink.split.i.i ]
  call void @llvm.lifetime.end.p0(i64 8, ptr nonnull %3) #21
  br label %24

21:                                               ; preds = %2
  %22 = tail call noundef i64 @_ZN11flatbuffers12GetAnyValueIEN10reflection8BaseTypeEPKh(i32 noundef %0, ptr noundef %1)
  %23 = sitofp i64 %22 to double
  br label %24

24:                                               ; preds = %_ZN11flatbuffers14StringToNumberIdEEbPKcPT_.exit, %21, %7, %4
  %.0 = phi double [ %23, %21 ], [ %8, %7 ], [ %6, %4 ], [ %.010, %_ZN11flatbuffers14StringToNumberIdEEbPKcPT_.exit ]
  ret double %.0
}